target datalayout = "e-m:e-p270:32:32-p271:32:32-p272:64:64-i64:64-i128:128-f80:128-n8:16:32:64-S128"
target triple = "x86_64-pc-linux-gnu"

%struct.keyPattern = type { i32, ptr }

; Function Attrs: nounwind uwtable
define dso_local i32 @ACLListMatchKeyPattern(ptr noundef %0, ptr noundef %1) #0 {
  %3 = alloca ptr, align 8
  %4 = alloca ptr, align 8
  store ptr %0, ptr %3, align 8, !tbaa !32
  store ptr %1, ptr %4, align 8, !tbaa !32
  %5 = load ptr, ptr %3, align 8, !tbaa !32
  %6 = getelementptr inbounds nuw %struct.keyPattern, ptr %5, i32 0, i32 1
  %7 = load ptr, ptr %6, align 8, !tbaa !35
  %8 = load ptr, ptr %4, align 8, !tbaa !32
  %9 = getelementptr inbounds nuw %struct.keyPattern, ptr %8, i32 0, i32 1
  %10 = load ptr, ptr %9, align 8, !tbaa !35
  %11 = call i32 @sdscmp(ptr noundef %7, ptr noundef %10)
  %12 = icmp eq i32 %11, 0
  %13 = zext i1 %12 to i32
  ret i32 %13
}