; Function Attrs: nounwind uwtable
define dso_local range(i32 0, 2) i32 @ACLListMatchKeyPattern(ptr noundef readonly captures(none) %0, ptr noundef readonly captures(none) %1) #0 {
  %3 = getelementptr inbounds nuw i8, ptr %0, i64 8
  %4 = load ptr, ptr %3, align 8, !tbaa !30
  %5 = getelementptr inbounds nuw i8, ptr %1, i64 8
  %6 = load ptr, ptr %5, align 8, !tbaa !30
  %7 = tail call i32 @sdscmp(ptr noundef %4, ptr noundef %6) #25
  %8 = icmp eq i32 %7, 0
  %9 = zext i1 %8 to i32
  ret i32 %9
}